; Function Attrs: mustprogress uwtable
define void @_ZNK6casadi8Sparsity9serializeB5cxx11Ev(ptr dead_on_unwind noalias writable sret(%"class.std::__cxx11::basic_string") align 8 %0, ptr noundef nonnull align 8 dereferenceable(8) %1) local_unnamed_addr #3 align 2 personality ptr @__gxx_personality_v0 {
  %3 = alloca %"class.casadi::SerializingStream", align 8
  %4 = alloca %"class.std::__cxx11::basic_stringstream", align 8
  call void @_ZNSt7__cxx1118basic_stringstreamIcSt11char_traitsIcESaIcEEC1Ev(ptr noundef nonnull align 8 dereferenceable(128) %4)
  %5 = getelementptr inbounds i8, ptr %4, i64 16
  call void @llvm.lifetime.start.p0(i64 80, ptr nonnull %3)
  invoke void @_ZN6casadi17SerializingStreamC1ERSo(ptr noundef nonnull align 8 dereferenceable(73) %3, ptr noundef nonnull align 8 dereferenceable(8) %5)
          to label %.noexc unwind label %22

.noexc:                                           ; preds = %2
  invoke void @_ZNK6casadi8Sparsity9serializeERNS_17SerializingStreamE(ptr noundef nonnull align 8 dereferenceable(8) %1, ptr noundef nonnull align 8 dereferenceable(73) %3)
          to label %6 unwind label %18

6:                                                ; preds = %.noexc
  %7 = getelementptr inbounds i8, ptr %3, i64 16
  %8 = load ptr, ptr %7, align 8
  %.not5.i.i.i.i.i.i = icmp eq ptr %8, null
  br i1 %.not5.i.i.i.i.i.i, label %_ZNSt10_HashtableIPvSt4pairIKS0_xESaIS3_ENSt8__detail10_Select1stESt8equal_toIS0_ESt4hashIS0_ENS5_18_Mod_range_hashingENS5_20_Default_ranged_hashENS5_20_Prime_rehash_policyENS5_17_Hashtable_traitsILb0ELb0ELb1EEEE5clearEv.exit.i.i.i.i, label %.lr.ph.i.i.i.i.i.i

.lr.ph.i.i.i.i.i.i:                               ; preds = %6, %.lr.ph.i.i.i.i.i.i
  %.06.i.i.i.i.i.i = phi ptr [ %9, %.lr.ph.i.i.i.i.i.i ], [ %8, %6 ]
  %9 = load ptr, ptr %.06.i.i.i.i.i.i, align 8
  call void @_ZdlPv(ptr noundef nonnull %.06.i.i.i.i.i.i) #26
  %.not.i.i.i.i.i.i = icmp eq ptr %9, null
  br i1 %.not.i.i.i.i.i.i, label %_ZNSt10_HashtableIPvSt4pairIKS0_xESaIS3_ENSt8__detail10_Select1stESt8equal_toIS0_ESt4hashIS0_ENS5_18_Mod_range_hashingENS5_20_Default_ranged_hashENS5_20_Prime_rehash_policyENS5_17_Hashtable_traitsILb0ELb0ELb1EEEE5clearEv.exit.i.i.i.i, label %.lr.ph.i.i.i.i.i.i, !llvm.loop !379

_ZNSt10_HashtableIPvSt4pairIKS0_xESaIS3_ENSt8__detail10_Select1stESt8equal_toIS0_ESt4hashIS0_ENS5_18_Mod_range_hashingENS5_20_Default_ranged_hashENS5_20_Prime_rehash_policyENS5_17_Hashtable_traitsILb0ELb0ELb1EEEE5clearEv.exit.i.i.i.i: ; preds = %.lr.ph.i.i.i.i.i.i, %6
  %10 = load ptr, ptr %3, align 8
  %11 = getelementptr inbounds i8, ptr %3, i64 8
  %12 = load i64, ptr %11, align 8
  %13 = shl i64 %12, 3
  call void @llvm.memset.p0.i64(ptr align 8 %10, i8 0, i64 %13, i1 false)
  call void @llvm.memset.p0.i64(ptr noundef nonnull align 8 dereferenceable(16) %7, i8 0, i64 16, i1 false)
  %14 = load ptr, ptr %3, align 8
  %15 = getelementptr inbounds i8, ptr %3, i64 48
  %16 = icmp eq ptr %15, %14
  br i1 %16, label %20, label %17

17:                                               ; preds = %_ZNSt10_HashtableIPvSt4pairIKS0_xESaIS3_ENSt8__detail10_Select1stESt8equal_toIS0_ESt4hashIS0_ENS5_18_Mod_range_hashingENS5_20_Default_ranged_hashENS5_20_Prime_rehash_policyENS5_17_Hashtable_traitsILb0ELb0ELb1EEEE5clearEv.exit.i.i.i.i
  call void @_ZdlPv(ptr noundef %14) #26
  br label %20

18:                                               ; preds = %.noexc
  %19 = landingpad { ptr, i32 }
          cleanup
  call void @_ZN6casadi17SerializingStreamD2Ev(ptr noundef nonnull align 8 dereferenceable(73) %3) #24
  br label %.body

20:                                               ; preds = %17, %_ZNSt10_HashtableIPvSt4pairIKS0_xESaIS3_ENSt8__detail10_Select1stESt8equal_toIS0_ESt4hashIS0_ENS5_18_Mod_range_hashingENS5_20_Default_ranged_hashENS5_20_Prime_rehash_policyENS5_17_Hashtable_traitsILb0ELb0ELb1EEEE5clearEv.exit.i.i.i.i
  call void @llvm.lifetime.end.p0(i64 80, ptr nonnull %3)
  invoke void @_ZNKSt7__cxx1118basic_stringstreamIcSt11char_traitsIcESaIcEE3strEv(ptr dead_on_unwind writable sret(%"class.std::__cxx11::basic_string") align 8 %0, ptr noundef nonnull align 8 dereferenceable(128) %4)
          to label %21 unwind label %22

21:                                               ; preds = %20
  call void @_ZNSt7__cxx1118basic_stringstreamIcSt11char_traitsIcESaIcEED1Ev(ptr noundef nonnull align 8 dereferenceable(128) %4) #24
  ret void

22:                                               ; preds = %2, %20
  %23 = landingpad { ptr, i32 }
          cleanup
  br label %.body

.body:                                            ; preds = %18, %22
  %eh.lpad-body = phi { ptr, i32 } [ %23, %22 ], [ %19, %18 ]
  call void @_ZNSt7__cxx1118basic_stringstreamIcSt11char_traitsIcESaIcEED1Ev(ptr noundef nonnull align 8 dereferenceable(128) %4) #24
  resume { ptr, i32 } %eh.lpad-body
}